target datalayout = "e-m:e-p270:32:32-p271:32:32-p272:64:64-i64:64-i128:128-f80:128-n8:16:32:64-S128"
target triple = "x86_64-pc-linux-gnu"

@.str.170 = private unnamed_addr constant [9 x i8] c"userdata\00", align 1
@.str.171 = private unnamed_addr constant [4 x i8] c"nil\00", align 1
@.str.172 = private unnamed_addr constant [8 x i8] c"boolean\00", align 1
@.str.173 = private unnamed_addr constant [7 x i8] c"number\00", align 1
@.str.174 = private unnamed_addr constant [7 x i8] c"string\00", align 1
@.str.175 = private unnamed_addr constant [6 x i8] c"table\00", align 1
@.str.176 = private unnamed_addr constant [9 x i8] c"function\00", align 1
@.str.177 = private unnamed_addr constant [7 x i8] c"thread\00", align 1
@.str.178 = private unnamed_addr constant [7 x i8] c"vector\00", align 1
@.str.179 = private unnamed_addr constant [7 x i8] c"buffer\00", align 1
@.str.180 = private unnamed_addr constant [4 x i8] c"any\00", align 1

; Function Attrs: mustprogress nounwind uwtable
define dso_local noundef ptr @_ZN4Luau7CodeGen19getBytecodeTypeNameEhPKPKc(i8 noundef zeroext %0, ptr noundef %1) #0 {
  %3 = alloca ptr, align 8
  %4 = alloca i8, align 1
  %5 = alloca ptr, align 8
  store i8 %0, ptr %4, align 1, !tbaa !35
  store ptr %1, ptr %5, align 8, !tbaa !85
  %6 = load i8, ptr %4, align 1, !tbaa !35
  %7 = zext i8 %6 to i32
  %8 = and i32 %7, -129
  %9 = trunc i32 %8 to i8
  store i8 %9, ptr %4, align 1, !tbaa !35
  %10 = load i8, ptr %4, align 1, !tbaa !35
  %11 = zext i8 %10 to i32
  %12 = icmp sge i32 %11, 64
  br i1 %12, label %13, label %29

13:                                               ; preds = %2
  %14 = load i8, ptr %4, align 1, !tbaa !35
  %15 = zext i8 %14 to i32
  %16 = icmp slt i32 %15, 96
  br i1 %16, label %17, label %29

17:                                               ; preds = %13
  %18 = load ptr, ptr %5, align 8, !tbaa !85
  %19 = icmp ne ptr %18, null
  br i1 %19, label %20, label %28

20:                                               ; preds = %17
  %21 = load ptr, ptr %5, align 8, !tbaa !85
  %22 = load i8, ptr %4, align 1, !tbaa !35
  %23 = zext i8 %22 to i32
  %24 = sub nsw i32 %23, 64
  %25 = sext i32 %24 to i64
  %26 = getelementptr inbounds ptr, ptr %21, i64 %25
  %27 = load ptr, ptr %26, align 8, !tbaa !37
  store ptr %27, ptr %3, align 8
  br label %44

28:                                               ; preds = %17
  store ptr @.str.170, ptr %3, align 8
  br label %44

29:                                               ; preds = %13, %2
  %30 = load i8, ptr %4, align 1, !tbaa !35
  %31 = zext i8 %30 to i32
  switch i32 %31, label %43 [
    i32 0, label %32
    i32 1, label %33
    i32 2, label %34
    i32 3, label %35
    i32 4, label %36
    i32 5, label %37
    i32 6, label %38
    i32 7, label %39
    i32 8, label %40
    i32 9, label %41
    i32 15, label %42
  ]

32:                                               ; preds = %29
  store ptr @.str.171, ptr %3, align 8
  br label %44

33:                                               ; preds = %29
  store ptr @.str.172, ptr %3, align 8
  br label %44

34:                                               ; preds = %29
  store ptr @.str.173, ptr %3, align 8
  br label %44

35:                                               ; preds = %29
  store ptr @.str.174, ptr %3, align 8
  br label %44

36:                                               ; preds = %29
  store ptr @.str.175, ptr %3, align 8
  br label %44

37:                                               ; preds = %29
  store ptr @.str.176, ptr %3, align 8
  br label %44

38:                                               ; preds = %29
  store ptr @.str.177, ptr %3, align 8
  br label %44

39:                                               ; preds = %29
  store ptr @.str.170, ptr %3, align 8
  br label %44

40:                                               ; preds = %29
  store ptr @.str.178, ptr %3, align 8
  br label %44

41:                                               ; preds = %29
  store ptr @.str.179, ptr %3, align 8
  br label %44

42:                                               ; preds = %29
  store ptr @.str.180, ptr %3, align 8
  br label %44

43:                                               ; preds = %29
  store ptr null, ptr %3, align 8
  br label %44

44:                                               ; preds = %43, %42, %41, %40, %39, %38, %37, %36, %35, %34, %33, %32, %28, %20
  %45 = load ptr, ptr %3, align 8
  ret ptr %45
}