; Function Attrs: mustprogress nofree norecurse nosync nounwind willreturn memory(argmem: read) uwtable
define dso_local noundef ptr @_ZN4Luau7CodeGen19getBytecodeTypeNameEhPKPKc(i8 noundef zeroext %0, ptr noundef readonly %1) local_unnamed_addr #5 {
  %3 = and i8 %0, 96
  %or.cond = icmp eq i8 %3, 64
  br i1 %or.cond, label %4, label %10

4:                                                ; preds = %2
  %.not = icmp eq ptr %1, null
  br i1 %.not, label %14, label %5

5:                                                ; preds = %4
  %6 = and i8 %0, 31
  %7 = zext nneg i8 %6 to i64
  %8 = getelementptr inbounds nuw ptr, ptr %1, i64 %7
  %9 = load ptr, ptr %8, align 8, !tbaa !42
  br label %14

10:                                               ; preds = %2
  %11 = and i8 %0, 127
  %12 = icmp samesign ult i8 %11, 16
  br i1 %12, label %switch.lookup, label %14

switch.lookup:                                    ; preds = %10
  %13 = zext nneg i8 %11 to i64
  %switch.gep = getelementptr inbounds nuw [16 x ptr], ptr @switch.table._ZN4Luau7CodeGen8toStringERNSt7__cxx1112basic_stringIcSt11char_traitsIcESaIcEEERKNS0_13BytecodeTypesEPKPKc.8, i64 0, i64 %13
  %switch.load = load ptr, ptr %switch.gep, align 8
  br label %14

14:                                               ; preds = %10, %switch.lookup, %4, %5
  %.0 = phi ptr [ %9, %5 ], [ @.str.170, %4 ], [ %switch.load, %switch.lookup ], [ null, %10 ]
  ret ptr %.0
}